; Function Attrs: mustprogress nofree norecurse nosync nounwind sspstrong willreturn memory(argmem: read) uwtable
define internal zeroext i1 @ide_tray_state_needed(ptr noundef readonly captures(none) %opaque) #2 {
entry:
  %tray_open = getelementptr inbounds nuw i8, ptr %opaque, i64 693
  %0 = load i8, ptr %tray_open, align 1
  %tobool = trunc i8 %0 to i1
  br i1 %tobool, label %lor.end, label %lor.rhs

lor.rhs:                                          ; preds = %entry
  %tray_locked = getelementptr inbounds nuw i8, ptr %opaque, i64 694
  %1 = load i8, ptr %tray_locked, align 2
  %tobool1 = trunc i8 %1 to i1
  br label %lor.end

lor.end:                                          ; preds = %lor.rhs, %entry
  %2 = phi i1 [ true, %entry ], [ %tobool1, %lor.rhs ]
  ret i1 %2
}